target datalayout = "e-m:e-p270:32:32-p271:32:32-p272:64:64-i64:64-i128:128-f80:128-n8:16:32:64-S128"
target triple = "x86_64-pc-linux-gnu"

%"class.icu_77::number::impl::CompactData" = type <{ %"class.icu_77::number::impl::MultiplierProducer", [168 x ptr], [21 x i8], i8, i8, i8 }>
%"class.icu_77::number::impl::MultiplierProducer" = type { ptr }
%"class.icu_77::UObject" = type { ptr }
%"class.icu_77::UnicodeString" = type { %"class.icu_77::Replaceable", %"union.icu_77::UnicodeString::StackBufferOrFields" }
%"class.icu_77::Replaceable" = type { %"class.icu_77::UObject" }
%"union.icu_77::UnicodeString::StackBufferOrFields" = type { %struct.anon.2, [32 x i8] }
%struct.anon.2 = type { i16, i32, i32, ptr }
%"class.icu_77::number::impl::CompactHandler" = type <{ %"class.icu_77::number::impl::MicroPropsGenerator", ptr, ptr, %"class.icu_77::MaybeStackArray.0", i32, [4 x i8], %"class.icu_77::number::impl::CompactData", %"struct.icu_77::number::impl::ParsedPatternInfo", ptr, i8, [7 x i8] }>
%"class.icu_77::number::impl::MicroPropsGenerator" = type { ptr }
%"class.icu_77::MaybeStackArray.0" = type { ptr, i32, i8, [12 x %"struct.icu_77::number::impl::CompactModInfo"] }
%"struct.icu_77::number::impl::CompactModInfo" = type { ptr, ptr }
%"struct.icu_77::number::impl::ParsedPatternInfo" = type <{ %"class.icu_77::number::impl::AffixPatternProvider", %"class.icu_77::UnicodeString", %"struct.icu_77::number::impl::ParsedSubpatternInfo", %"struct.icu_77::number::impl::ParsedSubpatternInfo", %"struct.icu_77::number::impl::ParsedPatternInfo::ParserState", ptr, i8, [7 x i8] }>
%"class.icu_77::number::impl::AffixPatternProvider" = type { ptr }
%"struct.icu_77::number::impl::ParsedSubpatternInfo" = type { i64, i32, i32, i32, i32, i32, i32, i32, i32, i8, i32, i8, i32, %"class.icu_77::number::impl::DecimalQuantity", i8, i32, i8, i8, i8, i8, i8, i8, %"struct.icu_77::number::impl::Endpoints", %"struct.icu_77::number::impl::Endpoints", %"struct.icu_77::number::impl::Endpoints" }
%"class.icu_77::number::impl::DecimalQuantity" = type <{ %"class.icu_77::IFixedDecimal", i8, [3 x i8], i32, i32, i8, i8, [2 x i8], double, i32, i32, i32, i32, %union.anon, i8, i8, [6 x i8] }>
%"class.icu_77::IFixedDecimal" = type { ptr }
%union.anon = type { %struct.anon }
%struct.anon = type { ptr, i32 }
%"struct.icu_77::number::impl::Endpoints" = type { i32, i32 }
%"struct.icu_77::number::impl::ParsedPatternInfo::ParserState" = type <{ ptr, i32, [4 x i8] }>

@_ZN6icu_776number4impl11CompactDataC1Ev = unnamed_addr alias void (ptr), ptr @_ZN6icu_776number4impl11CompactDataC2Ev

; Function Attrs: mustprogress nounwind uwtable
define linkonce_odr void @_ZN6icu_776number4impl19MicroPropsGeneratorD2Ev(ptr noundef nonnull align 8 dereferenceable(8) %0) unnamed_addr #0 comdat align 2 {
  %2 = alloca ptr, align 8
  store ptr %0, ptr %2, align 8, !tbaa !95
  ret void
}

; Function Attrs: mustprogress nounwind uwtable
define linkonce_odr void @_ZN6icu_7715MaybeStackArrayINS_6number4impl14CompactModInfoELi12EEC2Ev(ptr noundef nonnull align 8 dereferenceable(208) %0) unnamed_addr #0 comdat align 2 {
  %2 = alloca ptr, align 8
  store ptr %0, ptr %2, align 8, !tbaa !119
  %3 = load ptr, ptr %2, align 8
  %4 = getelementptr inbounds nuw %"class.icu_77::MaybeStackArray.0", ptr %3, i32 0, i32 0
  %5 = getelementptr inbounds nuw %"class.icu_77::MaybeStackArray.0", ptr %3, i32 0, i32 3
  %6 = getelementptr inbounds [12 x %"struct.icu_77::number::impl::CompactModInfo"], ptr %5, i64 0, i64 0
  store ptr %6, ptr %4, align 8, !tbaa !121
  %7 = getelementptr inbounds nuw %"class.icu_77::MaybeStackArray.0", ptr %3, i32 0, i32 1
  store i32 12, ptr %7, align 8, !tbaa !122
  %8 = getelementptr inbounds nuw %"class.icu_77::MaybeStackArray.0", ptr %3, i32 0, i32 2
  store i8 0, ptr %8, align 4, !tbaa !123
  ret void
}

; Function Attrs: inlinehint mustprogress nounwind uwtable
define linkonce_odr void @_ZN6icu_776number4impl19MicroPropsGeneratorC2Ev(ptr noundef nonnull align 8 dereferenceable(8) %0) unnamed_addr #2 comdat align 2 {
  %2 = alloca ptr, align 8
  store ptr %0, ptr %2, align 8, !tbaa !95
  %3 = load ptr, ptr %2, align 8
  store ptr getelementptr inbounds inrange(-16, 24) ({ [5 x ptr] }, ptr @_ZTVN6icu_776number4impl19MicroPropsGeneratorE, i32 0, i32 0, i32 2), ptr %3, align 8, !tbaa !25
  ret void
}

; Function Attrs: mustprogress uwtable
define void @_ZN6icu_776number4impl14CompactHandlerC2E19UNumberCompactStyleRKNS_6LocaleEPKcNS1_11CompactTypeEPKNS_11PluralRulesEPNS1_22MutablePatternModifierEbPKNS1_19MicroPropsGeneratorER10UErrorCode(ptr noundef nonnull align 8 dereferenceable(2065) %0, i32 noundef %1, ptr noundef nonnull align 8 dereferenceable(217) %2, ptr noundef %3, i32 noundef %4, ptr noundef %5, ptr noundef %6, i1 noundef zeroext %7, ptr noundef %8, ptr noundef nonnull align 4 dereferenceable(4) %9) unnamed_addr #1 align 2 personality ptr @__gxx_personality_v0 {
  %11 = alloca ptr, align 8
  %12 = alloca i32, align 4
  %13 = alloca ptr, align 8
  %14 = alloca ptr, align 8
  %15 = alloca i32, align 4
  %16 = alloca ptr, align 8
  %17 = alloca ptr, align 8
  %18 = alloca i8, align 1
  %19 = alloca ptr, align 8
  %20 = alloca ptr, align 8
  %21 = alloca ptr, align 8
  %22 = alloca i32, align 4
  store ptr %0, ptr %11, align 8, !tbaa !91
  store i32 %1, ptr %12, align 4, !tbaa !35
  store ptr %2, ptr %13, align 8, !tbaa !33
  store ptr %3, ptr %14, align 8, !tbaa !17
  store i32 %4, ptr %15, align 4, !tbaa !37
  store ptr %5, ptr %16, align 8, !tbaa !61
  store ptr %6, ptr %17, align 8, !tbaa !93
  %23 = zext i1 %7 to i8
  store i8 %23, ptr %18, align 1, !tbaa !39
  store ptr %8, ptr %19, align 8, !tbaa !95
  store ptr %9, ptr %20, align 8, !tbaa !22
  %24 = load ptr, ptr %11, align 8
  call void @_ZN6icu_776number4impl19MicroPropsGeneratorC2Ev(ptr noundef nonnull align 8 dereferenceable(8) %24) #14
  store ptr getelementptr inbounds inrange(-16, 24) ({ [5 x ptr] }, ptr @_ZTVN6icu_776number4impl14CompactHandlerE, i32 0, i32 0, i32 2), ptr %24, align 8, !tbaa !25
  %25 = getelementptr inbounds nuw %"class.icu_77::number::impl::CompactHandler", ptr %24, i32 0, i32 1
  %26 = load ptr, ptr %16, align 8, !tbaa !61
  store ptr %26, ptr %25, align 8, !tbaa !97
  %27 = getelementptr inbounds nuw %"class.icu_77::number::impl::CompactHandler", ptr %24, i32 0, i32 2
  %28 = load ptr, ptr %19, align 8, !tbaa !95
  store ptr %28, ptr %27, align 8, !tbaa !115
  %29 = getelementptr inbounds nuw %"class.icu_77::number::impl::CompactHandler", ptr %24, i32 0, i32 3
  invoke void @_ZN6icu_7715MaybeStackArrayINS_6number4impl14CompactModInfoELi12EEC2Ev(ptr noundef nonnull align 8 dereferenceable(208) %29)
          to label %30 unwind label %53

30:                                               ; preds = %10
  %31 = getelementptr inbounds nuw %"class.icu_77::number::impl::CompactHandler", ptr %24, i32 0, i32 4
  store i32 0, ptr %31, align 8, !tbaa !116
  %32 = getelementptr inbounds nuw %"class.icu_77::number::impl::CompactHandler", ptr %24, i32 0, i32 6
  invoke void @_ZN6icu_776number4impl11CompactDataC1Ev(ptr noundef nonnull align 8 dereferenceable(1375) %32)
          to label %33 unwind label %57

33:                                               ; preds = %30
  %34 = getelementptr inbounds nuw %"class.icu_77::number::impl::CompactHandler", ptr %24, i32 0, i32 7
  invoke void @_ZN6icu_776number4impl17ParsedPatternInfoC2Ev(ptr noundef nonnull align 8 dereferenceable(433) %34)
          to label %35 unwind label %61

35:                                               ; preds = %33
  %36 = getelementptr inbounds nuw %"class.icu_77::number::impl::CompactHandler", ptr %24, i32 0, i32 9
  %37 = load i8, ptr %18, align 1, !tbaa !39, !range !41, !noundef !42
  %38 = trunc i8 %37 to i1
  %39 = zext i1 %38 to i8
  store i8 %39, ptr %36, align 8, !tbaa !117
  %40 = getelementptr inbounds nuw %"class.icu_77::number::impl::CompactHandler", ptr %24, i32 0, i32 6
  %41 = load ptr, ptr %13, align 8, !tbaa !33
  %42 = load ptr, ptr %14, align 8, !tbaa !17
  %43 = load i32, ptr %12, align 4, !tbaa !35
  %44 = load i32, ptr %15, align 4, !tbaa !37
  %45 = load ptr, ptr %20, align 8, !tbaa !22
  invoke void @_ZN6icu_776number4impl11CompactData8populateERKNS_6LocaleEPKc19UNumberCompactStyleNS1_11CompactTypeER10UErrorCode(ptr noundef nonnull align 8 dereferenceable(1375) %40, ptr noundef nonnull align 8 dereferenceable(217) %41, ptr noundef %42, i32 noundef %43, i32 noundef %44, ptr noundef nonnull align 4 dereferenceable(4) %45)
          to label %46 unwind label %65

46:                                               ; preds = %35
  %47 = load i8, ptr %18, align 1, !tbaa !39, !range !41, !noundef !42
  %48 = trunc i8 %47 to i1
  br i1 %48, label %49, label %69

49:                                               ; preds = %46
  %50 = load ptr, ptr %17, align 8, !tbaa !93
  %51 = load ptr, ptr %20, align 8, !tbaa !22
  invoke void @_ZN6icu_776number4impl14CompactHandler22precomputeAllModifiersERNS1_22MutablePatternModifierER10UErrorCode(ptr noundef nonnull align 8 dereferenceable(2065) %24, ptr noundef nonnull align 8 dereferenceable(392) %50, ptr noundef nonnull align 4 dereferenceable(4) %51)
          to label %52 unwind label %65

52:                                               ; preds = %49
  br label %72

53:                                               ; preds = %10
  %54 = landingpad { ptr, i32 }
          cleanup
  %55 = extractvalue { ptr, i32 } %54, 0
  store ptr %55, ptr %21, align 8
  %56 = extractvalue { ptr, i32 } %54, 1
  store i32 %56, ptr %22, align 4
  br label %75

57:                                               ; preds = %30
  %58 = landingpad { ptr, i32 }
          cleanup
  %59 = extractvalue { ptr, i32 } %58, 0
  store ptr %59, ptr %21, align 8
  %60 = extractvalue { ptr, i32 } %58, 1
  store i32 %60, ptr %22, align 4
  br label %74

61:                                               ; preds = %33
  %62 = landingpad { ptr, i32 }
          cleanup
  %63 = extractvalue { ptr, i32 } %62, 0
  store ptr %63, ptr %21, align 8
  %64 = extractvalue { ptr, i32 } %62, 1
  store i32 %64, ptr %22, align 4
  br label %73

65:                                               ; preds = %49, %35
  %66 = landingpad { ptr, i32 }
          cleanup
  %67 = extractvalue { ptr, i32 } %66, 0
  store ptr %67, ptr %21, align 8
  %68 = extractvalue { ptr, i32 } %66, 1
  store i32 %68, ptr %22, align 4
  call void @_ZN6icu_776number4impl17ParsedPatternInfoD2Ev(ptr noundef nonnull align 8 dereferenceable(433) %34) #14
  br label %73

69:                                               ; preds = %46
  %70 = load ptr, ptr %17, align 8, !tbaa !93
  %71 = getelementptr inbounds nuw %"class.icu_77::number::impl::CompactHandler", ptr %24, i32 0, i32 8
  store ptr %70, ptr %71, align 8, !tbaa !118
  br label %72

72:                                               ; preds = %69, %52
  ret void

73:                                               ; preds = %65, %61
  call void @_ZN6icu_776number4impl18MultiplierProducerD2Ev(ptr noundef nonnull align 8 dereferenceable(1375) %32) #14
  br label %74

74:                                               ; preds = %73, %57
  call void @_ZN6icu_7715MaybeStackArrayINS_6number4impl14CompactModInfoELi12EED2Ev(ptr noundef nonnull align 8 dereferenceable(208) %29) #14
  br label %75

75:                                               ; preds = %74, %53
  call void @_ZN6icu_776number4impl19MicroPropsGeneratorD2Ev(ptr noundef nonnull align 8 dereferenceable(8) %24) #14
  br label %76

76:                                               ; preds = %75
  %77 = load ptr, ptr %21, align 8
  %78 = load i32, ptr %22, align 4
  %79 = insertvalue { ptr, i32 } poison, ptr %77, 0
  %80 = insertvalue { ptr, i32 } %79, i32 %78, 1
  resume { ptr, i32 } %80
}