; Function Attrs: mustprogress uwtable
define void @_ZN6icu_776number4impl14CompactHandlerC2E19UNumberCompactStyleRKNS_6LocaleEPKcNS1_11CompactTypeEPKNS_11PluralRulesEPNS1_22MutablePatternModifierEbPKNS1_19MicroPropsGeneratorER10UErrorCode(ptr noundef nonnull align 8 dereferenceable(2065) initializes((0, 24)) %0, i32 noundef %1, ptr noundef nonnull readonly align 8 captures(none) dereferenceable(217) %2, ptr noundef %3, i32 noundef %4, ptr noundef %5, ptr noundef %6, i1 noundef zeroext %7, ptr noundef %8, ptr noundef nonnull align 4 dereferenceable(4) %9) unnamed_addr #1 align 2 personality ptr @__gxx_personality_v0 {
  %11 = zext i1 %7 to i8
  store ptr getelementptr inbounds nuw inrange(-16, 24) (i8, ptr @_ZTVN6icu_776number4impl14CompactHandlerE, i64 16), ptr %0, align 8, !tbaa !15
  %12 = getelementptr inbounds nuw i8, ptr %0, i64 8
  store ptr %5, ptr %12, align 8, !tbaa !48
  %13 = getelementptr inbounds nuw i8, ptr %0, i64 16
  store ptr %8, ptr %13, align 8, !tbaa !71
  %14 = getelementptr inbounds nuw i8, ptr %0, i64 24
  %15 = getelementptr inbounds nuw i8, ptr %0, i64 40
  store ptr %15, ptr %14, align 8, !tbaa !72
  %16 = getelementptr inbounds nuw i8, ptr %0, i64 32
  store i32 12, ptr %16, align 8, !tbaa !73
  %17 = getelementptr inbounds nuw i8, ptr %0, i64 36
  store i8 0, ptr %17, align 4, !tbaa !74
  %18 = getelementptr inbounds nuw i8, ptr %0, i64 232
  store i32 0, ptr %18, align 8, !tbaa !75
  %19 = getelementptr inbounds nuw i8, ptr %0, i64 240
  invoke void @_ZN6icu_776number4impl11CompactDataC1Ev(ptr noundef nonnull align 8 dereferenceable(1375) %19)
          to label %20 unwind label %26

20:                                               ; preds = %10
  %21 = getelementptr inbounds nuw i8, ptr %0, i64 1616
  invoke void @_ZN6icu_776number4impl17ParsedPatternInfoC2Ev(ptr noundef nonnull align 8 dereferenceable(433) %21)
          to label %22 unwind label %28

22:                                               ; preds = %20
  %23 = getelementptr inbounds nuw i8, ptr %0, i64 2064
  store i8 %11, ptr %23, align 8, !tbaa !76
  invoke void @_ZN6icu_776number4impl11CompactData8populateERKNS_6LocaleEPKc19UNumberCompactStyleNS1_11CompactTypeER10UErrorCode(ptr noundef nonnull align 8 dereferenceable(1375) %19, ptr noundef nonnull align 8 dereferenceable(217) %2, ptr noundef %3, i32 noundef %1, i32 noundef %4, ptr noundef nonnull align 4 dereferenceable(4) %9)
          to label %24 unwind label %30

24:                                               ; preds = %22
  br i1 %7, label %25, label %32

25:                                               ; preds = %24
  invoke void @_ZN6icu_776number4impl14CompactHandler22precomputeAllModifiersERNS1_22MutablePatternModifierER10UErrorCode(ptr noundef nonnull align 8 dereferenceable(2065) %0, ptr noundef nonnull align 8 dereferenceable(392) %6, ptr noundef nonnull align 4 dereferenceable(4) %9)
          to label %34 unwind label %30

26:                                               ; preds = %10
  %27 = landingpad { ptr, i32 }
          cleanup
  br label %36

28:                                               ; preds = %20
  %29 = landingpad { ptr, i32 }
          cleanup
  br label %35

30:                                               ; preds = %25, %22
  %31 = landingpad { ptr, i32 }
          cleanup
  tail call void @_ZN6icu_776number4impl17ParsedPatternInfoD2Ev(ptr noundef nonnull align 8 dereferenceable(433) %21) #17
  br label %35

32:                                               ; preds = %24
  %33 = getelementptr inbounds nuw i8, ptr %0, i64 2056
  store ptr %6, ptr %33, align 8, !tbaa !77
  br label %34

34:                                               ; preds = %25, %32
  ret void

35:                                               ; preds = %30, %28
  %.pn = phi { ptr, i32 } [ %31, %30 ], [ %29, %28 ]
  tail call void @_ZN6icu_776number4impl18MultiplierProducerD2Ev(ptr noundef nonnull align 8 dereferenceable(1375) %19) #17
  br label %36

36:                                               ; preds = %35, %26
  %.pn.pn = phi { ptr, i32 } [ %.pn, %35 ], [ %27, %26 ]
  tail call void @_ZN6icu_7715MaybeStackArrayINS_6number4impl14CompactModInfoELi12EED2Ev(ptr noundef nonnull align 8 dereferenceable(208) %14) #17
  resume { ptr, i32 } %.pn.pn
}